Certificate:
    Data:
        Version: 3 (0x2)
        Serial Number:
            02:8c:fc:a6:16:69:57:19:0b:e3:11:35:d8:56:ab:10
    Signature Algorithm: sha256WithRSAEncryption
        Issuer: CN=carpentry CA
        Validity
            Not Before: Apr  5 15:17:14 2020 GMT
            Not After : Apr  3 15:17:14 2030 GMT
        Subject: CN=mmadeira
        Subject Public Key Info:
            Public Key Algorithm: rsaEncryption
                Public-Key: (2048 bit)
                Modulus:
                    00:e1:06:5a:af:33:37:c3:5a:0d:4c:e6:3d:35:72:
                    c9:43:f5:53:ad:23:09:be:c2:c0:33:73:5e:a1:84:
                    b2:62:ce:6d:9a:7c:f7:80:73:3f:8d:bb:21:1b:94:
                    58:0f:d8:90:46:30:5a:33:e8:99:75:1f:3e:f2:06:
                    1a:2e:da:5f:70:9d:89:be:72:9c:46:7b:5d:e0:ee:
                    3a:ce:a8:33:8b:df:22:42:7a:a4:69:ae:8d:95:f8:
                    80:38:7d:76:dc:e4:23:a4:77:c4:69:0f:24:0f:63:
                    af:d9:3e:3a:fc:4b:5b:a8:c8:7a:ea:7e:0d:01:d7:
                    74:ad:57:18:c1:59:bd:38:36:1e:fd:39:ae:e4:c9:
                    e1:ce:46:48:35:07:d0:f6:a9:db:cb:46:ad:0f:cd:
                    33:d7:74:bc:a3:f7:a8:a1:74:ac:42:c2:0d:62:9c:
                    2e:1d:20:00:c1:be:7b:d8:69:ca:13:1b:59:cd:79:
                    32:30:47:b9:f9:76:f9:81:09:19:72:e2:53:8d:3e:
                    3d:58:e3:65:a7:40:39:57:9d:0b:a4:63:d4:9c:41:
                    f3:c3:8c:9f:9c:e2:3b:49:1a:87:20:e7:a6:3f:b1:
                    a3:40:ba:03:cc:30:b7:21:2e:d0:d0:88:2c:ae:36:
                    0f:0e:1a:6e:b8:7c:a6:fd:99:c1:78:52:95:a4:84:
                    70:37
                Exponent: 65537 (0x10001)
        X509v3 extensions:
            X509v3 Basic Constraints: 
                CA:FALSE
            X509v3 Subject Key Identifier: 
                B5:D7:46:A4:9F:2F:E0:45:B8:A5:9C:B8:6C:2A:16:2D:8C:9A:20:13
            X509v3 Authority Key Identifier: 
                keyid:8D:DF:C5:BF:04:A6:01:D2:2C:CD:FC:71:75:2B:47:39:F0:E3:E5:07
                DirName:/CN=carpentry CA
                serial:D6:32:BB:44:F1:C1:B8:EE

            X509v3 Extended Key Usage: 
                TLS Web Client Authentication
            X509v3 Key Usage: 
                Digital Signature
    Signature Algorithm: sha256WithRSAEncryption
         02:fa:23:3b:56:e8:a4:e7:48:54:6f:8c:59:9c:d9:31:2a:b7:
         69:07:f4:2e:23:4e:0b:b5:7d:1b:85:e3:90:49:f3:4a:f1:dd:
         ba:85:45:ec:0a:97:6d:4a:f2:13:79:d7:85:dc:cb:df:09:bc:
         f2:69:6f:79:7f:1d:9b:e8:c1:36:3f:19:18:6b:b5:9d:6c:3d:
         c2:33:b9:de:40:1e:ef:5f:df:a3:bb:6f:03:e3:4c:a7:03:24:
         32:9b:85:d0:2a:ba:25:fb:ba:30:88:61:4d:43:54:89:c3:8b:
         59:ac:b6:29:a7:3f:03:68:4c:fa:0c:ad:9d:e1:19:09:39:62:
         1d:b3:a9:6f:75:8e:9b:f4:89:bc:7b:cf:4c:3b:50:2d:6d:ff:
         d1:5c:c8:ce:8d:18:f6:9a:1f:9b:f1:ec:68:c7:bf:5e:84:a8:
         de:28:68:d1:5b:09:bf:d1:73:e4:7d:36:42:e9:5b:a0:a4:c3:
         52:d2:8f:1a:3b:97:ce:e2:a6:2a:d8:98:48:32:fd:06:9b:f4:
         e3:6a:76:59:6d:67:40:ae:c1:96:d2:cb:5d:e5:96:9f:bc:04:
         7f:4a:49:41:c2:be:cf:fe:00:6d:5a:76:e7:9e:8d:cb:ba:96:
         74:52:ad:68:1a:1d:7f:e3:ae:e0:75:21:44:5a:23:d9:c5:ef:
         17:98:b2:85
-----BEGIN CERTIFICATE-----
MIIDTTCCAjWgAwIBAgIQAoz8phZpVxkL4xE12FarEDANBgkqhkiG9w0BAQsFADAX
MRUwEwYDVQQDDAxjYXJwZW50cnkgQ0EwHhcNMjAwNDA1MTUxNzE0WhcNMzAwNDAz
MTUxNzE0WjATMREwDwYDVQQDDAhtbWFkZWlyYTCCASIwDQYJKoZIhvcNAQEBBQAD
ggEPADCCAQoCggEBAOEGWq8zN8NaDUzmPTVyyUP1U60jCb7CwDNzXqGEsmLObZp8
94BzP427IRuUWA/YkEYwWjPomXUfPvIGGi7aX3Cdib5ynEZ7XeDuOs6oM4vfIkJ6
pGmujZX4gDh9dtzkI6R3xGkPJA9jr9k+OvxLW6jIeup+DQHXdK1XGMFZvTg2Hv05
ruTJ4c5GSDUH0Pap28tGrQ/NM9d0vKP3qKF0rELCDWKcLh0gAMG+e9hpyhMbWc15
MjBHufl2+YEJGXLiU40+PVjjZadAOVedC6Rj1JxB88OMn5ziO0kahyDnpj+xo0C6
A8wwtyEu0NCILK42Dw4abrh8pv2ZwXhSlaSEcDcCAwEAAaOBmDCBlTAJBgNVHRME
AjAAMB0GA1UdDgQWBBS110akny/gRbilnLhsKhYtjJogEzBHBgNVHSMEQDA+gBSN
38W/BKYB0izN/HF1K0c58OPlB6EbpBkwFzEVMBMGA1UEAwwMY2FycGVudHJ5IENB
ggkA1jK7RPHBuO4wEwYDVR0lBAwwCgYIKwYBBQUHAwIwCwYDVR0PBAQDAgeAMA0G
CSqGSIb3DQEBCwUAA4IBAQAC+iM7Vuik50hUb4xZnNkxKrdpB/QuI04LtX0bheOQ
SfNK8d26hUXsCpdtSvITedeF3MvfCbzyaW95fx2b6ME2PxkYa7WdbD3CM7neQB7v
X9+ju28D40ynAyQym4XQKrol+7owiGFNQ1SJw4tZrLYppz8DaEz6DK2d4RkJOWId
s6lvdY6b9Im8e89MO1Atbf/RXMjOjRj2mh+b8exox79ehKjeKGjRWwm/0XPkfTZC
6VugpMNS0o8aO5fO4qYq2JhIMv0Gm/TjanZZbWdArsGW0std5ZafvAR/SklBwr7P
/gBtWnbnno3LupZ0Uq1oGh1/467gdSFEWiPZxe8XmLKF
-----END CERTIFICATE-----
