Certificate:
    Data:
        Version: 3 (0x2)
        Serial Number:
            f5:b7:56:b6:9d:7e:a1:5e:40:a5:50:e3:b2:0b:a2:c2
    Signature Algorithm: sha256WithRSAEncryption
        Issuer: CN=carpentry CA
        Validity
            Not Before: Apr  5 15:12:02 2020 GMT
            Not After : Apr  3 15:12:02 2030 GMT
        Subject: CN=carpentry
        Subject Public Key Info:
            Public Key Algorithm: rsaEncryption
                Public-Key: (2048 bit)
                Modulus:
                    00:a0:d4:95:18:32:7a:48:d0:ab:80:8a:18:df:0f:
                    0a:c8:6a:86:ae:f9:42:c5:24:c3:3e:2c:bb:88:26:
                    ca:ef:01:ee:2c:04:f8:fc:29:c0:95:be:fa:3d:46:
                    70:3c:a1:15:8b:71:8c:b0:ae:e6:78:6b:11:c7:56:
                    0d:69:f5:ed:77:70:91:80:38:8e:ca:67:8f:4b:16:
                    eb:dc:c2:d4:c5:40:66:19:ac:77:c1:f2:76:93:4f:
                    a8:6d:da:fe:16:c4:10:43:7f:14:eb:97:09:e7:82:
                    55:d5:ba:f6:98:89:8a:e1:78:45:87:c3:4f:d1:12:
                    1e:01:81:cb:4b:e0:81:19:d2:0c:82:43:d8:62:d9:
                    22:10:ab:40:94:f1:89:9d:9d:a7:5e:98:d6:c7:b0:
                    b5:9d:b5:61:92:c6:e3:db:26:35:4e:fe:c3:1f:1c:
                    94:04:28:bd:bd:ec:22:88:10:7e:9c:cc:78:75:d8:
                    a3:54:5e:7a:8e:36:43:8c:3a:00:ec:4e:71:7e:f0:
                    90:f7:5d:bb:a6:5f:e7:c0:7d:d7:d0:ed:8c:2b:db:
                    1e:77:67:7e:ac:77:cb:52:2b:d7:77:be:9d:5a:44:
                    3d:78:22:ca:5d:0a:98:94:3a:a7:65:7d:9a:bf:4d:
                    8f:d0:f0:54:8c:1b:a4:90:fc:f7:b1:26:25:0a:bc:
                    09:fb
                Exponent: 65537 (0x10001)
        X509v3 extensions:
            X509v3 Basic Constraints: 
                CA:FALSE
            X509v3 Subject Key Identifier: 
                36:87:C0:48:1D:44:BF:7A:09:36:DB:12:87:87:51:E9:77:C5:E4:AC
            X509v3 Authority Key Identifier: 
                keyid:8D:DF:C5:BF:04:A6:01:D2:2C:CD:FC:71:75:2B:47:39:F0:E3:E5:07
                DirName:/CN=carpentry CA
                serial:D6:32:BB:44:F1:C1:B8:EE

            X509v3 Extended Key Usage: 
                TLS Web Server Authentication
            X509v3 Key Usage: 
                Digital Signature, Key Encipherment
            X509v3 Subject Alternative Name: 
                DNS:carpentry
    Signature Algorithm: sha256WithRSAEncryption
         80:83:ba:16:8b:e8:84:fb:80:ca:31:3a:5e:d4:47:94:c1:fb:
         3e:24:63:a8:c7:cc:8a:76:18:43:67:c2:b5:20:0d:a3:60:08:
         37:12:7a:35:40:d0:6e:1e:1d:47:11:43:17:68:85:5d:a6:c0:
         61:5e:da:2f:f2:1b:28:c4:c9:4e:9b:3f:19:5b:36:dd:1e:76:
         0a:0b:10:8c:9f:1b:83:49:0a:11:8e:1a:07:95:e7:5b:df:ef:
         e0:98:1c:65:8a:f1:d9:f4:a0:78:a2:5b:81:f6:8d:cd:0c:49:
         4b:9f:92:c1:57:a8:c0:5f:82:95:01:83:93:8a:48:44:a9:af:
         46:8a:31:3b:09:23:3d:42:e8:3d:fe:27:38:51:5d:e2:33:9c:
         c4:71:ec:98:f8:38:30:f5:8b:2b:60:80:be:1a:0b:86:b6:2d:
         d6:42:d1:48:a1:e9:32:6a:fe:8f:ea:60:2b:fe:41:24:93:bf:
         bf:83:8b:31:39:97:d1:ea:fd:4d:0d:9a:61:02:4e:c5:0c:30:
         11:a3:5b:18:42:b2:de:e6:f9:8e:af:4a:2f:13:87:3d:40:13:
         bd:a8:62:0d:fe:01:0c:fe:1b:f6:eb:27:eb:51:28:22:58:6e:
         be:65:5a:ac:99:ad:b2:cf:17:b7:10:a2:b0:39:67:b5:c2:b7:
         3d:fb:a4:6a
-----BEGIN CERTIFICATE-----
MIIDZTCCAk2gAwIBAgIRAPW3VradfqFeQKVQ47ILosIwDQYJKoZIhvcNAQELBQAw
FzEVMBMGA1UEAwwMY2FycGVudHJ5IENBMB4XDTIwMDQwNTE1MTIwMloXDTMwMDQw
MzE1MTIwMlowFDESMBAGA1UEAwwJY2FycGVudHJ5MIIBIjANBgkqhkiG9w0BAQEF
AAOCAQ8AMIIBCgKCAQEAoNSVGDJ6SNCrgIoY3w8KyGqGrvlCxSTDPiy7iCbK7wHu
LAT4/CnAlb76PUZwPKEVi3GMsK7meGsRx1YNafXtd3CRgDiOymePSxbr3MLUxUBm
Gax3wfJ2k0+obdr+FsQQQ38U65cJ54JV1br2mImK4XhFh8NP0RIeAYHLS+CBGdIM
gkPYYtkiEKtAlPGJnZ2nXpjWx7C1nbVhksbj2yY1Tv7DHxyUBCi9vewiiBB+nMx4
ddijVF56jjZDjDoA7E5xfvCQ9127pl/nwH3X0O2MK9sed2d+rHfLUivXd76dWkQ9
eCLKXQqYlDqnZX2av02P0PBUjBukkPz3sSYlCrwJ+wIDAQABo4GuMIGrMAkGA1Ud
EwQCMAAwHQYDVR0OBBYEFDaHwEgdRL96CTbbEoeHUel3xeSsMEcGA1UdIwRAMD6A
FI3fxb8EpgHSLM38cXUrRznw4+UHoRukGTAXMRUwEwYDVQQDDAxjYXJwZW50cnkg
Q0GCCQDWMrtE8cG47jATBgNVHSUEDDAKBggrBgEFBQcDATALBgNVHQ8EBAMCBaAw
FAYDVR0RBA0wC4IJY2FycGVudHJ5MA0GCSqGSIb3DQEBCwUAA4IBAQCAg7oWi+iE
+4DKMTpe1EeUwfs+JGOox8yKdhhDZ8K1IA2jYAg3Eno1QNBuHh1HEUMXaIVdpsBh
Xtov8hsoxMlOmz8ZWzbdHnYKCxCMnxuDSQoRjhoHledb3+/gmBxlivHZ9KB4oluB
9o3NDElLn5LBV6jAX4KVAYOTikhEqa9GijE7CSM9Qug9/ic4UV3iM5zEceyY+Dgw
9YsrYIC+GguGti3WQtFIoekyav6P6mAr/kEkk7+/g4sxOZfR6v1NDZphAk7FDDAR
o1sYQrLe5vmOr0ovE4c9QBO9qGIN/gEM/hv26yfrUSgiWG6+ZVqsma2yzxe3EKKw
OWe1wrc9+6Rq
-----END CERTIFICATE-----
